
/home/wkp/codes/RISCV-CPU/testcase/fpga/array_test1.elf:     file format elf32-littleriscv


Disassembly of section .text:

00000000 <_start>:
   0:	00020137          	lui	sp,0x20
   4:	0c8000ef          	jal	cc <main>
   8:	0ff00513          	li	a0,255
   c:	000306b7          	lui	a3,0x30
  10:	00a68223          	sb	a0,4(a3) # 30004 <__heap_start+0x2f004>
  14:	ff9ff06f          	j	c <_start+0xc>

00000018 <__divsi3>:
  18:	06054063          	bltz	a0,78 <__umodsi3+0x10>
  1c:	0605c663          	bltz	a1,88 <__umodsi3+0x20>

00000020 <__hidden___udivsi3>:
  20:	00058613          	mv	a2,a1
  24:	00050593          	mv	a1,a0
  28:	fff00513          	li	a0,-1
  2c:	02060c63          	beqz	a2,64 <__hidden___udivsi3+0x44>
  30:	00100693          	li	a3,1
  34:	00b67a63          	bgeu	a2,a1,48 <__hidden___udivsi3+0x28>
  38:	00c05863          	blez	a2,48 <__hidden___udivsi3+0x28>
  3c:	00161613          	slli	a2,a2,0x1
  40:	00169693          	slli	a3,a3,0x1
  44:	feb66ae3          	bltu	a2,a1,38 <__hidden___udivsi3+0x18>
  48:	00000513          	li	a0,0
  4c:	00c5e663          	bltu	a1,a2,58 <__hidden___udivsi3+0x38>
  50:	40c585b3          	sub	a1,a1,a2
  54:	00d56533          	or	a0,a0,a3
  58:	0016d693          	srli	a3,a3,0x1
  5c:	00165613          	srli	a2,a2,0x1
  60:	fe0696e3          	bnez	a3,4c <__hidden___udivsi3+0x2c>
  64:	00008067          	ret

00000068 <__umodsi3>:
  68:	00008293          	mv	t0,ra
  6c:	fb5ff0ef          	jal	20 <__hidden___udivsi3>
  70:	00058513          	mv	a0,a1
  74:	00028067          	jr	t0
  78:	40a00533          	neg	a0,a0
  7c:	00b04863          	bgtz	a1,8c <__umodsi3+0x24>
  80:	40b005b3          	neg	a1,a1
  84:	f9dff06f          	j	20 <__hidden___udivsi3>
  88:	40b005b3          	neg	a1,a1
  8c:	00008293          	mv	t0,ra
  90:	f91ff0ef          	jal	20 <__hidden___udivsi3>
  94:	40a00533          	neg	a0,a0
  98:	00028067          	jr	t0

0000009c <__modsi3>:
  9c:	00008293          	mv	t0,ra
  a0:	0005ca63          	bltz	a1,b4 <__modsi3+0x18>
  a4:	00054c63          	bltz	a0,bc <__modsi3+0x20>
  a8:	f79ff0ef          	jal	20 <__hidden___udivsi3>
  ac:	00058513          	mv	a0,a1
  b0:	00028067          	jr	t0
  b4:	40b005b3          	neg	a1,a1
  b8:	fe0558e3          	bgez	a0,a8 <__modsi3+0xc>
  bc:	40a00533          	neg	a0,a0
  c0:	f61ff0ef          	jal	20 <__hidden___udivsi3>
  c4:	40b00533          	neg	a0,a1
  c8:	00028067          	jr	t0

Disassembly of section .text.startup:

000000cc <main>:
  cc:	fa010113          	addi	sp,sp,-96 # 1ffa0 <__heap_start+0x1efa0>
  d0:	04912a23          	sw	s1,84(sp)
  d4:	05212823          	sw	s2,80(sp)
  d8:	01010493          	addi	s1,sp,16
  dc:	33400913          	li	s2,820
  e0:	05312623          	sw	s3,76(sp)
  e4:	04112e23          	sw	ra,92(sp)
  e8:	04812c23          	sw	s0,88(sp)
  ec:	05412423          	sw	s4,72(sp)
  f0:	05512223          	sw	s5,68(sp)
  f4:	05612023          	sw	s6,64(sp)
  f8:	03712e23          	sw	s7,60(sp)
  fc:	03812c23          	sw	s8,56(sp)
 100:	03912a23          	sw	s9,52(sp)
 104:	03a12823          	sw	s10,48(sp)
 108:	03b12623          	sw	s11,44(sp)
 10c:	33400e13          	li	t3,820
 110:	01090993          	addi	s3,s2,16
 114:	00048e93          	mv	t4,s1
 118:	000305b7          	lui	a1,0x30
 11c:	00a00513          	li	a0,10
 120:	02000f13          	li	t5,32
 124:	02d00813          	li	a6,45
 128:	00900893          	li	a7,9
 12c:	000e2023          	sw	zero,0(t3)
 130:	0080006f          	j	138 <main+0x6c>
 134:	1ea71863          	bne	a4,a0,324 <main+0x258>
 138:	0005c783          	lbu	a5,0(a1) # 30000 <__heap_start+0x2f000>
 13c:	0ff7f713          	zext.b	a4,a5
 140:	fe079ae3          	bnez	a5,134 <main+0x68>
 144:	00000313          	li	t1,0
 148:	00000613          	li	a2,0
 14c:	0180006f          	j	164 <main+0x98>
 150:	1ad8ea63          	bltu	a7,a3,304 <main+0x238>
 154:	0005c683          	lbu	a3,0(a1)
 158:	fd078613          	addi	a2,a5,-48
 15c:	0ff6f713          	zext.b	a4,a3
 160:	1a068263          	beqz	a3,304 <main+0x238>
 164:	00261793          	slli	a5,a2,0x2
 168:	00c787b3          	add	a5,a5,a2
 16c:	00179793          	slli	a5,a5,0x1
 170:	fd070693          	addi	a3,a4,-48
 174:	00e787b3          	add	a5,a5,a4
 178:	0ff6f693          	zext.b	a3,a3
 17c:	fd071ae3          	bne	a4,a6,150 <main+0x84>
 180:	16030863          	beqz	t1,2f0 <main+0x224>
 184:	40c00633          	neg	a2,a2
 188:	00cea023          	sw	a2,0(t4)
 18c:	004e0e13          	addi	t3,t3,4
 190:	004e8e93          	addi	t4,t4,4
 194:	f93e1ce3          	bne	t3,s3,12c <main+0x60>
 198:	00410a93          	addi	s5,sp,4
 19c:	00900b13          	li	s6,9
 1a0:	02d00c13          	li	s8,45
 1a4:	00030bb7          	lui	s7,0x30
 1a8:	00092403          	lw	s0,0(s2)
 1ac:	00000c93          	li	s9,0
 1b0:	14044e63          	bltz	s0,30c <main+0x240>
 1b4:	00000d13          	li	s10,0
 1b8:	00a00593          	li	a1,10
 1bc:	00040513          	mv	a0,s0
 1c0:	eddff0ef          	jal	9c <__modsi3>
 1c4:	000d0a13          	mv	s4,s10
 1c8:	001d0d13          	addi	s10,s10,1
 1cc:	01aa8db3          	add	s11,s5,s10
 1d0:	03050513          	addi	a0,a0,48
 1d4:	fead8fa3          	sb	a0,-1(s11)
 1d8:	00a00593          	li	a1,10
 1dc:	00040513          	mv	a0,s0
 1e0:	00040d93          	mv	s11,s0
 1e4:	e35ff0ef          	jal	18 <__divsi3>
 1e8:	00050413          	mv	s0,a0
 1ec:	fdbb46e3          	blt	s6,s11,1b8 <main+0xec>
 1f0:	000c8863          	beqz	s9,200 <main+0x134>
 1f4:	002d07b3          	add	a5,s10,sp
 1f8:	01878223          	sb	s8,4(a5)
 1fc:	000d0a13          	mv	s4,s10
 200:	014a87b3          	add	a5,s5,s4
 204:	0007c683          	lbu	a3,0(a5)
 208:	00078713          	mv	a4,a5
 20c:	fff78793          	addi	a5,a5,-1
 210:	00db8023          	sb	a3,0(s7) # 30000 <__heap_start+0x2f000>
 214:	feea98e3          	bne	s5,a4,204 <main+0x138>
 218:	00490913          	addi	s2,s2,4
 21c:	f93916e3          	bne	s2,s3,1a8 <main+0xdc>
 220:	00a00793          	li	a5,10
 224:	00fb8023          	sb	a5,0(s7)
 228:	00900a13          	li	s4,9
 22c:	02d00b93          	li	s7,45
 230:	00030b37          	lui	s6,0x30
 234:	0004a403          	lw	s0,0(s1)
 238:	00000c13          	li	s8,0
 23c:	0c044e63          	bltz	s0,318 <main+0x24c>
 240:	00000993          	li	s3,0
 244:	00a00593          	li	a1,10
 248:	00040513          	mv	a0,s0
 24c:	e51ff0ef          	jal	9c <__modsi3>
 250:	00098913          	mv	s2,s3
 254:	00198993          	addi	s3,s3,1
 258:	013a8cb3          	add	s9,s5,s3
 25c:	03050513          	addi	a0,a0,48
 260:	feac8fa3          	sb	a0,-1(s9)
 264:	00a00593          	li	a1,10
 268:	00040513          	mv	a0,s0
 26c:	00040c93          	mv	s9,s0
 270:	da9ff0ef          	jal	18 <__divsi3>
 274:	00050413          	mv	s0,a0
 278:	fd9a46e3          	blt	s4,s9,244 <main+0x178>
 27c:	000c0863          	beqz	s8,28c <main+0x1c0>
 280:	002987b3          	add	a5,s3,sp
 284:	01778223          	sb	s7,4(a5)
 288:	00098913          	mv	s2,s3
 28c:	012a87b3          	add	a5,s5,s2
 290:	0007c683          	lbu	a3,0(a5)
 294:	00078713          	mv	a4,a5
 298:	fff78793          	addi	a5,a5,-1
 29c:	00db0023          	sb	a3,0(s6) # 30000 <__heap_start+0x2f000>
 2a0:	feea98e3          	bne	s5,a4,290 <main+0x1c4>
 2a4:	00448493          	addi	s1,s1,4
 2a8:	02010793          	addi	a5,sp,32
 2ac:	f8f494e3          	bne	s1,a5,234 <main+0x168>
 2b0:	05c12083          	lw	ra,92(sp)
 2b4:	05812403          	lw	s0,88(sp)
 2b8:	05412483          	lw	s1,84(sp)
 2bc:	05012903          	lw	s2,80(sp)
 2c0:	04c12983          	lw	s3,76(sp)
 2c4:	04812a03          	lw	s4,72(sp)
 2c8:	04412a83          	lw	s5,68(sp)
 2cc:	04012b03          	lw	s6,64(sp)
 2d0:	03c12b83          	lw	s7,60(sp)
 2d4:	03812c03          	lw	s8,56(sp)
 2d8:	03412c83          	lw	s9,52(sp)
 2dc:	03012d03          	lw	s10,48(sp)
 2e0:	02c12d83          	lw	s11,44(sp)
 2e4:	00000513          	li	a0,0
 2e8:	06010113          	addi	sp,sp,96
 2ec:	00008067          	ret
 2f0:	0005c683          	lbu	a3,0(a1)
 2f4:	00100313          	li	t1,1
 2f8:	fd078613          	addi	a2,a5,-48
 2fc:	0ff6f713          	zext.b	a4,a3
 300:	e60692e3          	bnez	a3,164 <main+0x98>
 304:	e80302e3          	beqz	t1,188 <main+0xbc>
 308:	e7dff06f          	j	184 <main+0xb8>
 30c:	40800433          	neg	s0,s0
 310:	00100c93          	li	s9,1
 314:	ea1ff06f          	j	1b4 <main+0xe8>
 318:	40800433          	neg	s0,s0
 31c:	00100c13          	li	s8,1
 320:	f21ff06f          	j	240 <main+0x174>
 324:	e1e70ae3          	beq	a4,t5,138 <main+0x6c>
 328:	00900793          	li	a5,9
 32c:	e0f706e3          	beq	a4,a5,138 <main+0x6c>
 330:	e15ff06f          	j	144 <main+0x78>
