
/home/wkp/codes/RISCV-CPU/testcase/fpga/expr.elf:     file format elf32-littleriscv


Disassembly of section .text:

00000000 <_start>:
   0:	00020137          	lui	sp,0x20
   4:	1a0000ef          	jal	1a4 <main>
   8:	0ff00513          	li	a0,255
   c:	000306b7          	lui	a3,0x30
  10:	00a68223          	sb	a0,4(a3) # 30004 <__heap_start+0x2f004>
  14:	ff9ff06f          	j	c <_start+0xc>

00000018 <outl>:
  18:	fd010113          	addi	sp,sp,-48 # 1ffd0 <__heap_start+0x1efd0>
  1c:	02812423          	sw	s0,40(sp)
  20:	01612823          	sw	s6,16(sp)
  24:	02112623          	sw	ra,44(sp)
  28:	02912223          	sw	s1,36(sp)
  2c:	03212023          	sw	s2,32(sp)
  30:	01312e23          	sw	s3,28(sp)
  34:	01412c23          	sw	s4,24(sp)
  38:	01512a23          	sw	s5,20(sp)
  3c:	00050413          	mv	s0,a0
  40:	00000b13          	li	s6,0
  44:	00055663          	bgez	a0,50 <outl+0x38>
  48:	40a00433          	neg	s0,a0
  4c:	00100b13          	li	s6,1
  50:	00000913          	li	s2,0
  54:	00410993          	addi	s3,sp,4
  58:	00900a93          	li	s5,9
  5c:	00a00593          	li	a1,10
  60:	00040513          	mv	a0,s0
  64:	110000ef          	jal	174 <__modsi3>
  68:	00090493          	mv	s1,s2
  6c:	00190913          	addi	s2,s2,1
  70:	01298a33          	add	s4,s3,s2
  74:	03050513          	addi	a0,a0,48
  78:	feaa0fa3          	sb	a0,-1(s4)
  7c:	00a00593          	li	a1,10
  80:	00040513          	mv	a0,s0
  84:	00040a13          	mv	s4,s0
  88:	068000ef          	jal	f0 <__divsi3>
  8c:	00050413          	mv	s0,a0
  90:	fd4ac6e3          	blt	s5,s4,5c <outl+0x44>
  94:	000b0c63          	beqz	s6,ac <outl+0x94>
  98:	01090793          	addi	a5,s2,16
  9c:	002787b3          	add	a5,a5,sp
  a0:	02d00713          	li	a4,45
  a4:	00090493          	mv	s1,s2
  a8:	fee78a23          	sb	a4,-12(a5)
  ac:	009987b3          	add	a5,s3,s1
  b0:	00030637          	lui	a2,0x30
  b4:	0007c683          	lbu	a3,0(a5)
  b8:	00078713          	mv	a4,a5
  bc:	fff78793          	addi	a5,a5,-1
  c0:	00d60023          	sb	a3,0(a2) # 30000 <__heap_start+0x2f000>
  c4:	fee998e3          	bne	s3,a4,b4 <outl+0x9c>
  c8:	02c12083          	lw	ra,44(sp)
  cc:	02812403          	lw	s0,40(sp)
  d0:	02412483          	lw	s1,36(sp)
  d4:	02012903          	lw	s2,32(sp)
  d8:	01c12983          	lw	s3,28(sp)
  dc:	01812a03          	lw	s4,24(sp)
  e0:	01412a83          	lw	s5,20(sp)
  e4:	01012b03          	lw	s6,16(sp)
  e8:	03010113          	addi	sp,sp,48
  ec:	00008067          	ret

000000f0 <__divsi3>:
  f0:	06054063          	bltz	a0,150 <__umodsi3+0x10>
  f4:	0605c663          	bltz	a1,160 <__umodsi3+0x20>

000000f8 <__hidden___udivsi3>:
  f8:	00058613          	mv	a2,a1
  fc:	00050593          	mv	a1,a0
 100:	fff00513          	li	a0,-1
 104:	02060c63          	beqz	a2,13c <__hidden___udivsi3+0x44>
 108:	00100693          	li	a3,1
 10c:	00b67a63          	bgeu	a2,a1,120 <__hidden___udivsi3+0x28>
 110:	00c05863          	blez	a2,120 <__hidden___udivsi3+0x28>
 114:	00161613          	slli	a2,a2,0x1
 118:	00169693          	slli	a3,a3,0x1
 11c:	feb66ae3          	bltu	a2,a1,110 <__hidden___udivsi3+0x18>
 120:	00000513          	li	a0,0
 124:	00c5e663          	bltu	a1,a2,130 <__hidden___udivsi3+0x38>
 128:	40c585b3          	sub	a1,a1,a2
 12c:	00d56533          	or	a0,a0,a3
 130:	0016d693          	srli	a3,a3,0x1
 134:	00165613          	srli	a2,a2,0x1
 138:	fe0696e3          	bnez	a3,124 <__hidden___udivsi3+0x2c>
 13c:	00008067          	ret

00000140 <__umodsi3>:
 140:	00008293          	mv	t0,ra
 144:	fb5ff0ef          	jal	f8 <__hidden___udivsi3>
 148:	00058513          	mv	a0,a1
 14c:	00028067          	jr	t0
 150:	40a00533          	neg	a0,a0
 154:	00b04863          	bgtz	a1,164 <__umodsi3+0x24>
 158:	40b005b3          	neg	a1,a1
 15c:	f9dff06f          	j	f8 <__hidden___udivsi3>
 160:	40b005b3          	neg	a1,a1
 164:	00008293          	mv	t0,ra
 168:	f91ff0ef          	jal	f8 <__hidden___udivsi3>
 16c:	40a00533          	neg	a0,a0
 170:	00028067          	jr	t0

00000174 <__modsi3>:
 174:	00008293          	mv	t0,ra
 178:	0005ca63          	bltz	a1,18c <__modsi3+0x18>
 17c:	00054c63          	bltz	a0,194 <__modsi3+0x20>
 180:	f79ff0ef          	jal	f8 <__hidden___udivsi3>
 184:	00058513          	mv	a0,a1
 188:	00028067          	jr	t0
 18c:	40b005b3          	neg	a1,a1
 190:	fe0558e3          	bgez	a0,180 <__modsi3+0xc>
 194:	40a00533          	neg	a0,a0
 198:	f61ff0ef          	jal	f8 <__hidden___udivsi3>
 19c:	40b00533          	neg	a0,a1
 1a0:	00028067          	jr	t0

Disassembly of section .text.startup:

000001a4 <main>:
 1a4:	fe010113          	addi	sp,sp,-32
 1a8:	00912a23          	sw	s1,20(sp)
 1ac:	27002783          	lw	a5,624(zero) # 270 <__bss_start>
 1b0:	200005b7          	lui	a1,0x20000
 1b4:	fff58593          	addi	a1,a1,-1 # 1fffffff <__heap_start+0x1fffefff>
 1b8:	40000637          	lui	a2,0x40000
 1bc:	01212823          	sw	s2,16(sp)
 1c0:	00112e23          	sw	ra,28(sp)
 1c4:	00812c23          	sw	s0,24(sp)
 1c8:	01312623          	sw	s3,12(sp)
 1cc:	00b78733          	add	a4,a5,a1
 1d0:	ffe60613          	addi	a2,a2,-2 # 3ffffffe <__heap_start+0x3fffeffe>
 1d4:	27802503          	lw	a0,632(zero) # 278 <A>
 1d8:	04e66663          	bltu	a2,a4,224 <main+0x80>
 1dc:	27402703          	lw	a4,628(zero) # 274 <B>
 1e0:	40a786b3          	sub	a3,a5,a0
 1e4:	40a68533          	sub	a0,a3,a0
 1e8:	00151513          	slli	a0,a0,0x1
 1ec:	00e686b3          	add	a3,a3,a4
 1f0:	40a68533          	sub	a0,a3,a0
 1f4:	40a787b3          	sub	a5,a5,a0
 1f8:	40a786b3          	sub	a3,a5,a0
 1fc:	00169693          	slli	a3,a3,0x1
 200:	00e78733          	add	a4,a5,a4
 204:	40d70733          	sub	a4,a4,a3
 208:	00e787b3          	add	a5,a5,a4
 20c:	40d787b3          	sub	a5,a5,a3
 210:	00b786b3          	add	a3,a5,a1
 214:	fcd676e3          	bgeu	a2,a3,1e0 <main+0x3c>
 218:	26a02c23          	sw	a0,632(zero) # 278 <A>
 21c:	26e02a23          	sw	a4,628(zero) # 274 <B>
 220:	26f02823          	sw	a5,624(zero) # 270 <__bss_start>
 224:	00030437          	lui	s0,0x30
 228:	02000993          	li	s3,32
 22c:	dedff0ef          	jal	18 <outl>
 230:	01340023          	sb	s3,0(s0) # 30000 <__heap_start+0x2f000>
 234:	27402503          	lw	a0,628(zero) # 274 <B>
 238:	de1ff0ef          	jal	18 <outl>
 23c:	01340023          	sb	s3,0(s0)
 240:	27002503          	lw	a0,624(zero) # 270 <__bss_start>
 244:	dd5ff0ef          	jal	18 <outl>
 248:	00a00793          	li	a5,10
 24c:	00f40023          	sb	a5,0(s0)
 250:	01c12083          	lw	ra,28(sp)
 254:	01812403          	lw	s0,24(sp)
 258:	01412483          	lw	s1,20(sp)
 25c:	01012903          	lw	s2,16(sp)
 260:	00c12983          	lw	s3,12(sp)
 264:	00000513          	li	a0,0
 268:	02010113          	addi	sp,sp,32
 26c:	00008067          	ret
