
/home/wkp/codes/RISCV-CPU/testcase/fpga/hanoi.elf:     file format elf32-littleriscv


Disassembly of section .text:

00000000 <_start>:
   0:	00020137          	lui	sp,0x20
   4:	310000ef          	jal	314 <main>
   8:	0ff00513          	li	a0,255
   c:	000306b7          	lui	a3,0x30
  10:	00a68223          	sb	a0,4(a3) # 30004 <__heap_start+0x2f004>
  14:	ff9ff06f          	j	c <_start+0xc>

00000018 <cd>:
  18:	fb010113          	addi	sp,sp,-80 # 1ffb0 <__heap_start+0x1efb0>
  1c:	03412c23          	sw	s4,56(sp)
  20:	00030a37          	lui	s4,0x30
  24:	04912223          	sw	s1,68(sp)
  28:	05212023          	sw	s2,64(sp)
  2c:	000a0493          	mv	s1,s4
  30:	000a0913          	mv	s2,s4
  34:	03312e23          	sw	s3,60(sp)
  38:	03512a23          	sw	s5,52(sp)
  3c:	000a0993          	mv	s3,s4
  40:	03812423          	sw	s8,40(sp)
  44:	03912223          	sw	s9,36(sp)
  48:	00055ab7          	lui	s5,0x55
  4c:	04812423          	sw	s0,72(sp)
  50:	03612823          	sw	s6,48(sp)
  54:	03712623          	sw	s7,44(sp)
  58:	03a12023          	sw	s10,32(sp)
  5c:	01b12e23          	sw	s11,28(sp)
  60:	04112623          	sw	ra,76(sp)
  64:	00050d93          	mv	s11,a0
  68:	00058b13          	mv	s6,a1
  6c:	00060e13          	mv	t3,a2
  70:	00068b93          	mv	s7,a3
  74:	00050d13          	mv	s10,a0
  78:	4cc00c93          	li	s9,1228
  7c:	4d400c13          	li	s8,1236
  80:	004a0a13          	addi	s4,s4,4 # 30004 <__heap_start+0x2f004>
  84:	00598993          	addi	s3,s3,5
  88:	00690913          	addi	s2,s2,6
  8c:	00748493          	addi	s1,s1,7
  90:	72fa8a93          	addi	s5,s5,1839 # 5572f <__heap_start+0x5472f>
  94:	00100313          	li	t1,1
  98:	00030437          	lui	s0,0x30
  9c:	000a4583          	lbu	a1,0(s4)
  a0:	0009c783          	lbu	a5,0(s3)
  a4:	00094683          	lbu	a3,0(s2)
  a8:	0004c603          	lbu	a2,0(s1)
  ac:	00879793          	slli	a5,a5,0x8
  b0:	01069693          	slli	a3,a3,0x10
  b4:	01861613          	slli	a2,a2,0x18
  b8:	00d66633          	or	a2,a2,a3
  bc:	00b66633          	or	a2,a2,a1
  c0:	00f66633          	or	a2,a2,a5
  c4:	000a4683          	lbu	a3,0(s4)
  c8:	0009c803          	lbu	a6,0(s3)
  cc:	00094883          	lbu	a7,0(s2)
  d0:	0004c783          	lbu	a5,0(s1)
  d4:	00881813          	slli	a6,a6,0x8
  d8:	01089893          	slli	a7,a7,0x10
  dc:	01879793          	slli	a5,a5,0x18
  e0:	0117e7b3          	or	a5,a5,a7
  e4:	00d7e7b3          	or	a5,a5,a3
  e8:	0107e7b3          	or	a5,a5,a6
  ec:	40c787b3          	sub	a5,a5,a2
  f0:	fcfafae3          	bgeu	s5,a5,c4 <cd+0xac>
  f4:	0a6d0863          	beq	s10,t1,1a4 <cd+0x18c>
  f8:	fffd0d13          	addi	s10,s10,-1
  fc:	000e0693          	mv	a3,t3
 100:	000b8613          	mv	a2,s7
 104:	000d0513          	mv	a0,s10
 108:	000b0593          	mv	a1,s6
 10c:	01c12623          	sw	t3,12(sp)
 110:	f09ff0ef          	jal	18 <cd>
 114:	00c12e03          	lw	t3,12(sp)
 118:	00050713          	mv	a4,a0
 11c:	000c8693          	mv	a3,s9
 120:	06d00793          	li	a5,109
 124:	00030637          	lui	a2,0x30
 128:	00100313          	li	t1,1
 12c:	00f60023          	sb	a5,0(a2) # 30000 <__heap_start+0x2f000>
 130:	0016c783          	lbu	a5,1(a3)
 134:	00168693          	addi	a3,a3,1
 138:	fe079ae3          	bnez	a5,12c <cd+0x114>
 13c:	000b4783          	lbu	a5,0(s6)
 140:	00078c63          	beqz	a5,158 <cd+0x140>
 144:	000b0693          	mv	a3,s6
 148:	00f40023          	sb	a5,0(s0) # 30000 <__heap_start+0x2f000>
 14c:	0016c783          	lbu	a5,1(a3)
 150:	00168693          	addi	a3,a3,1
 154:	fe079ae3          	bnez	a5,148 <cd+0x130>
 158:	000c0693          	mv	a3,s8
 15c:	02000793          	li	a5,32
 160:	00f40023          	sb	a5,0(s0)
 164:	0016c783          	lbu	a5,1(a3)
 168:	00168693          	addi	a3,a3,1
 16c:	fe079ae3          	bnez	a5,160 <cd+0x148>
 170:	000bc783          	lbu	a5,0(s7)
 174:	00078c63          	beqz	a5,18c <cd+0x174>
 178:	000b8693          	mv	a3,s7
 17c:	00f40023          	sb	a5,0(s0)
 180:	0016c783          	lbu	a5,1(a3)
 184:	00168693          	addi	a3,a3,1
 188:	fe079ae3          	bnez	a5,17c <cd+0x164>
 18c:	000b0793          	mv	a5,s6
 190:	00a00693          	li	a3,10
 194:	000e0b13          	mv	s6,t3
 198:	00d40023          	sb	a3,0(s0)
 19c:	00078e13          	mv	t3,a5
 1a0:	efdff06f          	j	9c <cd+0x84>
 1a4:	fffd8d93          	addi	s11,s11,-1
 1a8:	06d00793          	li	a5,109
 1ac:	000306b7          	lui	a3,0x30
 1b0:	00f68023          	sb	a5,0(a3) # 30000 <__heap_start+0x2f000>
 1b4:	001cc783          	lbu	a5,1(s9)
 1b8:	001c8c93          	addi	s9,s9,1
 1bc:	fe079ae3          	bnez	a5,1b0 <cd+0x198>
 1c0:	000b4783          	lbu	a5,0(s6)
 1c4:	00078c63          	beqz	a5,1dc <cd+0x1c4>
 1c8:	000306b7          	lui	a3,0x30
 1cc:	00f68023          	sb	a5,0(a3) # 30000 <__heap_start+0x2f000>
 1d0:	001b4783          	lbu	a5,1(s6)
 1d4:	001b0b13          	addi	s6,s6,1
 1d8:	fe079ae3          	bnez	a5,1cc <cd+0x1b4>
 1dc:	02000793          	li	a5,32
 1e0:	000306b7          	lui	a3,0x30
 1e4:	00f68023          	sb	a5,0(a3) # 30000 <__heap_start+0x2f000>
 1e8:	001c4783          	lbu	a5,1(s8)
 1ec:	001c0c13          	addi	s8,s8,1
 1f0:	fe079ae3          	bnez	a5,1e4 <cd+0x1cc>
 1f4:	000bc783          	lbu	a5,0(s7)
 1f8:	00078c63          	beqz	a5,210 <cd+0x1f8>
 1fc:	000306b7          	lui	a3,0x30
 200:	00f68023          	sb	a5,0(a3) # 30000 <__heap_start+0x2f000>
 204:	001bc783          	lbu	a5,1(s7)
 208:	001b8b93          	addi	s7,s7,1
 20c:	fe079ae3          	bnez	a5,200 <cd+0x1e8>
 210:	000307b7          	lui	a5,0x30
 214:	00a00693          	li	a3,10
 218:	00d78023          	sb	a3,0(a5) # 30000 <__heap_start+0x2f000>
 21c:	04c12083          	lw	ra,76(sp)
 220:	04812403          	lw	s0,72(sp)
 224:	00170713          	addi	a4,a4,1
 228:	04412483          	lw	s1,68(sp)
 22c:	04012903          	lw	s2,64(sp)
 230:	03c12983          	lw	s3,60(sp)
 234:	03812a03          	lw	s4,56(sp)
 238:	03412a83          	lw	s5,52(sp)
 23c:	03012b03          	lw	s6,48(sp)
 240:	02c12b83          	lw	s7,44(sp)
 244:	02812c03          	lw	s8,40(sp)
 248:	02412c83          	lw	s9,36(sp)
 24c:	02012d03          	lw	s10,32(sp)
 250:	01b70533          	add	a0,a4,s11
 254:	01c12d83          	lw	s11,28(sp)
 258:	05010113          	addi	sp,sp,80
 25c:	00008067          	ret

00000260 <__divsi3>:
 260:	06054063          	bltz	a0,2c0 <__umodsi3+0x10>
 264:	0605c663          	bltz	a1,2d0 <__umodsi3+0x20>

00000268 <__hidden___udivsi3>:
 268:	00058613          	mv	a2,a1
 26c:	00050593          	mv	a1,a0
 270:	fff00513          	li	a0,-1
 274:	02060c63          	beqz	a2,2ac <__hidden___udivsi3+0x44>
 278:	00100693          	li	a3,1
 27c:	00b67a63          	bgeu	a2,a1,290 <__hidden___udivsi3+0x28>
 280:	00c05863          	blez	a2,290 <__hidden___udivsi3+0x28>
 284:	00161613          	slli	a2,a2,0x1
 288:	00169693          	slli	a3,a3,0x1
 28c:	feb66ae3          	bltu	a2,a1,280 <__hidden___udivsi3+0x18>
 290:	00000513          	li	a0,0
 294:	00c5e663          	bltu	a1,a2,2a0 <__hidden___udivsi3+0x38>
 298:	40c585b3          	sub	a1,a1,a2
 29c:	00d56533          	or	a0,a0,a3
 2a0:	0016d693          	srli	a3,a3,0x1
 2a4:	00165613          	srli	a2,a2,0x1
 2a8:	fe0696e3          	bnez	a3,294 <__hidden___udivsi3+0x2c>
 2ac:	00008067          	ret

000002b0 <__umodsi3>:
 2b0:	00008293          	mv	t0,ra
 2b4:	fb5ff0ef          	jal	268 <__hidden___udivsi3>
 2b8:	00058513          	mv	a0,a1
 2bc:	00028067          	jr	t0
 2c0:	40a00533          	neg	a0,a0
 2c4:	00b04863          	bgtz	a1,2d4 <__umodsi3+0x24>
 2c8:	40b005b3          	neg	a1,a1
 2cc:	f9dff06f          	j	268 <__hidden___udivsi3>
 2d0:	40b005b3          	neg	a1,a1
 2d4:	00008293          	mv	t0,ra
 2d8:	f91ff0ef          	jal	268 <__hidden___udivsi3>
 2dc:	40a00533          	neg	a0,a0
 2e0:	00028067          	jr	t0

000002e4 <__modsi3>:
 2e4:	00008293          	mv	t0,ra
 2e8:	0005ca63          	bltz	a1,2fc <__modsi3+0x18>
 2ec:	00054c63          	bltz	a0,304 <__modsi3+0x20>
 2f0:	f79ff0ef          	jal	268 <__hidden___udivsi3>
 2f4:	00058513          	mv	a0,a1
 2f8:	00028067          	jr	t0
 2fc:	40b005b3          	neg	a1,a1
 300:	fe0558e3          	bgez	a0,2f0 <__modsi3+0xc>
 304:	40a00533          	neg	a0,a0
 308:	f61ff0ef          	jal	268 <__hidden___udivsi3>
 30c:	40b00533          	neg	a0,a1
 310:	00028067          	jr	t0

Disassembly of section .text.startup:

00000314 <main>:
 314:	fb010113          	addi	sp,sp,-80
 318:	04100693          	li	a3,65
 31c:	04200713          	li	a4,66
 320:	04300793          	li	a5,67
 324:	00d12623          	sw	a3,12(sp)
 328:	04112623          	sw	ra,76(sp)
 32c:	04812423          	sw	s0,72(sp)
 330:	04912223          	sw	s1,68(sp)
 334:	05212023          	sw	s2,64(sp)
 338:	03312e23          	sw	s3,60(sp)
 33c:	03412c23          	sw	s4,56(sp)
 340:	03512a23          	sw	s5,52(sp)
 344:	03612823          	sw	s6,48(sp)
 348:	00010823          	sb	zero,16(sp)
 34c:	00010c23          	sb	zero,24(sp)
 350:	02010023          	sb	zero,32(sp)
 354:	00e12a23          	sw	a4,20(sp)
 358:	00f12e23          	sw	a5,28(sp)
 35c:	000306b7          	lui	a3,0x30
 360:	00a00613          	li	a2,10
 364:	0080006f          	j	36c <main+0x58>
 368:	14c71863          	bne	a4,a2,4b8 <main+0x1a4>
 36c:	0006c783          	lbu	a5,0(a3) # 30000 <__heap_start+0x2f000>
 370:	0ff7f713          	zext.b	a4,a5
 374:	fe079ae3          	bnez	a5,368 <main+0x54>
 378:	00000893          	li	a7,0
 37c:	00000513          	li	a0,0
 380:	02d00613          	li	a2,45
 384:	00900813          	li	a6,9
 388:	000305b7          	lui	a1,0x30
 38c:	0180006f          	j	3a4 <main+0x90>
 390:	12d86063          	bltu	a6,a3,4b0 <main+0x19c>
 394:	0005c683          	lbu	a3,0(a1) # 30000 <__heap_start+0x2f000>
 398:	fd078513          	addi	a0,a5,-48
 39c:	0ff6f713          	zext.b	a4,a3
 3a0:	10068863          	beqz	a3,4b0 <main+0x19c>
 3a4:	00251793          	slli	a5,a0,0x2
 3a8:	00a787b3          	add	a5,a5,a0
 3ac:	00179793          	slli	a5,a5,0x1
 3b0:	fd070693          	addi	a3,a4,-48
 3b4:	00e787b3          	add	a5,a5,a4
 3b8:	0ff6f693          	zext.b	a3,a3
 3bc:	fcc71ae3          	bne	a4,a2,390 <main+0x7c>
 3c0:	0c088e63          	beqz	a7,49c <main+0x188>
 3c4:	40a00533          	neg	a0,a0
 3c8:	00000713          	li	a4,0
 3cc:	01c10693          	addi	a3,sp,28
 3d0:	01410613          	addi	a2,sp,20
 3d4:	00c10593          	addi	a1,sp,12
 3d8:	c41ff0ef          	jal	18 <cd>
 3dc:	00050413          	mv	s0,a0
 3e0:	00000b13          	li	s6,0
 3e4:	00055663          	bgez	a0,3f0 <main+0xdc>
 3e8:	40a00433          	neg	s0,a0
 3ec:	00100b13          	li	s6,1
 3f0:	00000913          	li	s2,0
 3f4:	02410993          	addi	s3,sp,36
 3f8:	00900a93          	li	s5,9
 3fc:	00a00593          	li	a1,10
 400:	00040513          	mv	a0,s0
 404:	ee1ff0ef          	jal	2e4 <__modsi3>
 408:	00090493          	mv	s1,s2
 40c:	00190913          	addi	s2,s2,1
 410:	01298a33          	add	s4,s3,s2
 414:	03050513          	addi	a0,a0,48
 418:	feaa0fa3          	sb	a0,-1(s4)
 41c:	00a00593          	li	a1,10
 420:	00040513          	mv	a0,s0
 424:	00040a13          	mv	s4,s0
 428:	e39ff0ef          	jal	260 <__divsi3>
 42c:	00050413          	mv	s0,a0
 430:	fd4ac6e3          	blt	s5,s4,3fc <main+0xe8>
 434:	000b0c63          	beqz	s6,44c <main+0x138>
 438:	03090793          	addi	a5,s2,48
 43c:	002787b3          	add	a5,a5,sp
 440:	02d00713          	li	a4,45
 444:	00090493          	mv	s1,s2
 448:	fee78a23          	sb	a4,-12(a5)
 44c:	009987b3          	add	a5,s3,s1
 450:	00030637          	lui	a2,0x30
 454:	0007c683          	lbu	a3,0(a5)
 458:	00078713          	mv	a4,a5
 45c:	fff78793          	addi	a5,a5,-1
 460:	00d60023          	sb	a3,0(a2) # 30000 <__heap_start+0x2f000>
 464:	fee998e3          	bne	s3,a4,454 <main+0x140>
 468:	00a00793          	li	a5,10
 46c:	00f60023          	sb	a5,0(a2)
 470:	04c12083          	lw	ra,76(sp)
 474:	04812403          	lw	s0,72(sp)
 478:	04412483          	lw	s1,68(sp)
 47c:	04012903          	lw	s2,64(sp)
 480:	03c12983          	lw	s3,60(sp)
 484:	03812a03          	lw	s4,56(sp)
 488:	03412a83          	lw	s5,52(sp)
 48c:	03012b03          	lw	s6,48(sp)
 490:	00000513          	li	a0,0
 494:	05010113          	addi	sp,sp,80
 498:	00008067          	ret
 49c:	0005c683          	lbu	a3,0(a1)
 4a0:	00100893          	li	a7,1
 4a4:	fd078513          	addi	a0,a5,-48
 4a8:	0ff6f713          	zext.b	a4,a3
 4ac:	ee069ce3          	bnez	a3,3a4 <main+0x90>
 4b0:	f0088ce3          	beqz	a7,3c8 <main+0xb4>
 4b4:	f11ff06f          	j	3c4 <main+0xb0>
 4b8:	02000793          	li	a5,32
 4bc:	eaf708e3          	beq	a4,a5,36c <main+0x58>
 4c0:	00900793          	li	a5,9
 4c4:	eaf704e3          	beq	a4,a5,36c <main+0x58>
 4c8:	eb1ff06f          	j	378 <main+0x64>
