
/home/wkp/codes/RISCV-CPU/testcase/fpga/looper.elf:     file format elf32-littleriscv


Disassembly of section .text:

00000000 <_start>:
   0:	00020137          	lui	sp,0x20
   4:	108000ef          	jal	10c <main>
   8:	0ff00513          	li	a0,255
   c:	000306b7          	lui	a3,0x30
  10:	00a68223          	sb	a0,4(a3) # 30004 <__heap_start+0x2f004>
  14:	ff9ff06f          	j	c <_start+0xc>

00000018 <work>:
  18:	21002783          	lw	a5,528(zero) # 210 <n>
  1c:	02078463          	beqz	a5,44 <work+0x2c>
  20:	00279713          	slli	a4,a5,0x2
  24:	00f70733          	add	a4,a4,a5
  28:	00100613          	li	a2,1
  2c:	20c02783          	lw	a5,524(zero) # 20c <sum>
  30:	00e66c63          	bltu	a2,a4,48 <work+0x30>
  34:	3b800737          	lui	a4,0x3b800
  38:	00c70733          	add	a4,a4,a2
  3c:	00e787b3          	add	a5,a5,a4
  40:	20f02623          	sw	a5,524(zero) # 20c <sum>
  44:	00008067          	ret
  48:	b2800737          	lui	a4,0xb2800
  4c:	00370713          	addi	a4,a4,3 # b2800003 <__heap_start+0xb27ff003>
  50:	00e787b3          	add	a5,a5,a4
  54:	fedff06f          	j	40 <work+0x28>

00000058 <__divsi3>:
  58:	06054063          	bltz	a0,b8 <__umodsi3+0x10>
  5c:	0605c663          	bltz	a1,c8 <__umodsi3+0x20>

00000060 <__hidden___udivsi3>:
  60:	00058613          	mv	a2,a1
  64:	00050593          	mv	a1,a0
  68:	fff00513          	li	a0,-1
  6c:	02060c63          	beqz	a2,a4 <__hidden___udivsi3+0x44>
  70:	00100693          	li	a3,1
  74:	00b67a63          	bgeu	a2,a1,88 <__hidden___udivsi3+0x28>
  78:	00c05863          	blez	a2,88 <__hidden___udivsi3+0x28>
  7c:	00161613          	slli	a2,a2,0x1
  80:	00169693          	slli	a3,a3,0x1
  84:	feb66ae3          	bltu	a2,a1,78 <__hidden___udivsi3+0x18>
  88:	00000513          	li	a0,0
  8c:	00c5e663          	bltu	a1,a2,98 <__hidden___udivsi3+0x38>
  90:	40c585b3          	sub	a1,a1,a2
  94:	00d56533          	or	a0,a0,a3
  98:	0016d693          	srli	a3,a3,0x1
  9c:	00165613          	srli	a2,a2,0x1
  a0:	fe0696e3          	bnez	a3,8c <__hidden___udivsi3+0x2c>
  a4:	00008067          	ret

000000a8 <__umodsi3>:
  a8:	00008293          	mv	t0,ra
  ac:	fb5ff0ef          	jal	60 <__hidden___udivsi3>
  b0:	00058513          	mv	a0,a1
  b4:	00028067          	jr	t0
  b8:	40a00533          	neg	a0,a0
  bc:	00b04863          	bgtz	a1,cc <__umodsi3+0x24>
  c0:	40b005b3          	neg	a1,a1
  c4:	f9dff06f          	j	60 <__hidden___udivsi3>
  c8:	40b005b3          	neg	a1,a1
  cc:	00008293          	mv	t0,ra
  d0:	f91ff0ef          	jal	60 <__hidden___udivsi3>
  d4:	40a00533          	neg	a0,a0
  d8:	00028067          	jr	t0

000000dc <__modsi3>:
  dc:	00008293          	mv	t0,ra
  e0:	0005ca63          	bltz	a1,f4 <__modsi3+0x18>
  e4:	00054c63          	bltz	a0,fc <__modsi3+0x20>
  e8:	f79ff0ef          	jal	60 <__hidden___udivsi3>
  ec:	00058513          	mv	a0,a1
  f0:	00028067          	jr	t0
  f4:	40b005b3          	neg	a1,a1
  f8:	fe0558e3          	bgez	a0,e8 <__modsi3+0xc>
  fc:	40a00533          	neg	a0,a0
 100:	f61ff0ef          	jal	60 <__hidden___udivsi3>
 104:	40b00533          	neg	a0,a1
 108:	00028067          	jr	t0

Disassembly of section .text.startup:

0000010c <main>:
 10c:	fd010113          	addi	sp,sp,-48 # 1ffd0 <__heap_start+0x1efd0>
 110:	03200793          	li	a5,50
 114:	02812423          	sw	s0,40(sp)
 118:	20f02823          	sw	a5,528(zero) # 210 <n>
 11c:	02112623          	sw	ra,44(sp)
 120:	01612823          	sw	s6,16(sp)
 124:	02912223          	sw	s1,36(sp)
 128:	03212023          	sw	s2,32(sp)
 12c:	01312e23          	sw	s3,28(sp)
 130:	01412c23          	sw	s4,24(sp)
 134:	01512a23          	sw	s5,20(sp)
 138:	ee1ff0ef          	jal	18 <work>
 13c:	009897b7          	lui	a5,0x989
 140:	68078793          	addi	a5,a5,1664 # 989680 <__heap_start+0x988680>
 144:	20f02823          	sw	a5,528(zero) # 210 <n>
 148:	ed1ff0ef          	jal	18 <work>
 14c:	20c02403          	lw	s0,524(zero) # 20c <__bss_end>
 150:	00000b13          	li	s6,0
 154:	00045663          	bgez	s0,160 <main+0x54>
 158:	40800433          	neg	s0,s0
 15c:	00100b13          	li	s6,1
 160:	00000913          	li	s2,0
 164:	00410993          	addi	s3,sp,4
 168:	00900a93          	li	s5,9
 16c:	00a00593          	li	a1,10
 170:	00040513          	mv	a0,s0
 174:	f69ff0ef          	jal	dc <__modsi3>
 178:	00090493          	mv	s1,s2
 17c:	00190913          	addi	s2,s2,1
 180:	01298a33          	add	s4,s3,s2
 184:	03050513          	addi	a0,a0,48
 188:	feaa0fa3          	sb	a0,-1(s4)
 18c:	00a00593          	li	a1,10
 190:	00040513          	mv	a0,s0
 194:	00040a13          	mv	s4,s0
 198:	ec1ff0ef          	jal	58 <__divsi3>
 19c:	00050413          	mv	s0,a0
 1a0:	fd4ac6e3          	blt	s5,s4,16c <main+0x60>
 1a4:	000b0c63          	beqz	s6,1bc <main+0xb0>
 1a8:	01090793          	addi	a5,s2,16
 1ac:	002787b3          	add	a5,a5,sp
 1b0:	02d00713          	li	a4,45
 1b4:	00090493          	mv	s1,s2
 1b8:	fee78a23          	sb	a4,-12(a5)
 1bc:	009987b3          	add	a5,s3,s1
 1c0:	00030637          	lui	a2,0x30
 1c4:	0007c683          	lbu	a3,0(a5)
 1c8:	00078713          	mv	a4,a5
 1cc:	fff78793          	addi	a5,a5,-1
 1d0:	00d60023          	sb	a3,0(a2) # 30000 <__heap_start+0x2f000>
 1d4:	fee998e3          	bne	s3,a4,1c4 <main+0xb8>
 1d8:	00a00793          	li	a5,10
 1dc:	00f60023          	sb	a5,0(a2)
 1e0:	02c12083          	lw	ra,44(sp)
 1e4:	02812403          	lw	s0,40(sp)
 1e8:	02412483          	lw	s1,36(sp)
 1ec:	02012903          	lw	s2,32(sp)
 1f0:	01c12983          	lw	s3,28(sp)
 1f4:	01812a03          	lw	s4,24(sp)
 1f8:	01412a83          	lw	s5,20(sp)
 1fc:	01012b03          	lw	s6,16(sp)
 200:	00000513          	li	a0,0
 204:	03010113          	addi	sp,sp,48
 208:	00008067          	ret
