
/home/wkp/codes/RISCV-CPU/testcase/fpga/testsleep.elf:     file format elf32-littleriscv


Disassembly of section .text:

00000000 <_start>:
   0:	00020137          	lui	sp,0x20
   4:	1d4000ef          	jal	1d8 <main>
   8:	0ff00513          	li	a0,255
   c:	000306b7          	lui	a3,0x30
  10:	00a68223          	sb	a0,4(a3) # 30004 <__heap_start+0x2f004>
  14:	ff9ff06f          	j	c <_start+0xc>

00000018 <outl>:
  18:	fd010113          	addi	sp,sp,-48 # 1ffd0 <__heap_start+0x1efd0>
  1c:	02812423          	sw	s0,40(sp)
  20:	01612823          	sw	s6,16(sp)
  24:	02112623          	sw	ra,44(sp)
  28:	02912223          	sw	s1,36(sp)
  2c:	03212023          	sw	s2,32(sp)
  30:	01312e23          	sw	s3,28(sp)
  34:	01412c23          	sw	s4,24(sp)
  38:	01512a23          	sw	s5,20(sp)
  3c:	00050413          	mv	s0,a0
  40:	00000b13          	li	s6,0
  44:	00055663          	bgez	a0,50 <outl+0x38>
  48:	40a00433          	neg	s0,a0
  4c:	00100b13          	li	s6,1
  50:	00000913          	li	s2,0
  54:	00410993          	addi	s3,sp,4
  58:	00900a93          	li	s5,9
  5c:	00a00593          	li	a1,10
  60:	00040513          	mv	a0,s0
  64:	144000ef          	jal	1a8 <__modsi3>
  68:	00090493          	mv	s1,s2
  6c:	00190913          	addi	s2,s2,1
  70:	01298a33          	add	s4,s3,s2
  74:	03050513          	addi	a0,a0,48
  78:	feaa0fa3          	sb	a0,-1(s4)
  7c:	00a00593          	li	a1,10
  80:	00040513          	mv	a0,s0
  84:	00040a13          	mv	s4,s0
  88:	09c000ef          	jal	124 <__divsi3>
  8c:	00050413          	mv	s0,a0
  90:	fd4ac6e3          	blt	s5,s4,5c <outl+0x44>
  94:	000b0c63          	beqz	s6,ac <outl+0x94>
  98:	01090793          	addi	a5,s2,16
  9c:	002787b3          	add	a5,a5,sp
  a0:	02d00713          	li	a4,45
  a4:	00090493          	mv	s1,s2
  a8:	fee78a23          	sb	a4,-12(a5)
  ac:	009987b3          	add	a5,s3,s1
  b0:	00030637          	lui	a2,0x30
  b4:	0007c683          	lbu	a3,0(a5)
  b8:	00078713          	mv	a4,a5
  bc:	fff78793          	addi	a5,a5,-1
  c0:	00d60023          	sb	a3,0(a2) # 30000 <__heap_start+0x2f000>
  c4:	fee998e3          	bne	s3,a4,b4 <outl+0x9c>
  c8:	02c12083          	lw	ra,44(sp)
  cc:	02812403          	lw	s0,40(sp)
  d0:	02412483          	lw	s1,36(sp)
  d4:	02012903          	lw	s2,32(sp)
  d8:	01c12983          	lw	s3,28(sp)
  dc:	01812a03          	lw	s4,24(sp)
  e0:	01412a83          	lw	s5,20(sp)
  e4:	01012b03          	lw	s6,16(sp)
  e8:	03010113          	addi	sp,sp,48
  ec:	00008067          	ret

000000f0 <clock>:
  f0:	00030637          	lui	a2,0x30
  f4:	00060693          	mv	a3,a2
  f8:	00464603          	lbu	a2,4(a2) # 30004 <__heap_start+0x2f004>
  fc:	0056c503          	lbu	a0,5(a3)
 100:	0066c703          	lbu	a4,6(a3)
 104:	0076c783          	lbu	a5,7(a3)
 108:	00851513          	slli	a0,a0,0x8
 10c:	01071713          	slli	a4,a4,0x10
 110:	01879793          	slli	a5,a5,0x18
 114:	00e7e7b3          	or	a5,a5,a4
 118:	00c7e7b3          	or	a5,a5,a2
 11c:	00a7e533          	or	a0,a5,a0
 120:	00008067          	ret

00000124 <__divsi3>:
 124:	06054063          	bltz	a0,184 <__umodsi3+0x10>
 128:	0605c663          	bltz	a1,194 <__umodsi3+0x20>

0000012c <__hidden___udivsi3>:
 12c:	00058613          	mv	a2,a1
 130:	00050593          	mv	a1,a0
 134:	fff00513          	li	a0,-1
 138:	02060c63          	beqz	a2,170 <__hidden___udivsi3+0x44>
 13c:	00100693          	li	a3,1
 140:	00b67a63          	bgeu	a2,a1,154 <__hidden___udivsi3+0x28>
 144:	00c05863          	blez	a2,154 <__hidden___udivsi3+0x28>
 148:	00161613          	slli	a2,a2,0x1
 14c:	00169693          	slli	a3,a3,0x1
 150:	feb66ae3          	bltu	a2,a1,144 <__hidden___udivsi3+0x18>
 154:	00000513          	li	a0,0
 158:	00c5e663          	bltu	a1,a2,164 <__hidden___udivsi3+0x38>
 15c:	40c585b3          	sub	a1,a1,a2
 160:	00d56533          	or	a0,a0,a3
 164:	0016d693          	srli	a3,a3,0x1
 168:	00165613          	srli	a2,a2,0x1
 16c:	fe0696e3          	bnez	a3,158 <__hidden___udivsi3+0x2c>
 170:	00008067          	ret

00000174 <__umodsi3>:
 174:	00008293          	mv	t0,ra
 178:	fb5ff0ef          	jal	12c <__hidden___udivsi3>
 17c:	00058513          	mv	a0,a1
 180:	00028067          	jr	t0
 184:	40a00533          	neg	a0,a0
 188:	00b04863          	bgtz	a1,198 <__umodsi3+0x24>
 18c:	40b005b3          	neg	a1,a1
 190:	f9dff06f          	j	12c <__hidden___udivsi3>
 194:	40b005b3          	neg	a1,a1
 198:	00008293          	mv	t0,ra
 19c:	f91ff0ef          	jal	12c <__hidden___udivsi3>
 1a0:	40a00533          	neg	a0,a0
 1a4:	00028067          	jr	t0

000001a8 <__modsi3>:
 1a8:	00008293          	mv	t0,ra
 1ac:	0005ca63          	bltz	a1,1c0 <__modsi3+0x18>
 1b0:	00054c63          	bltz	a0,1c8 <__modsi3+0x20>
 1b4:	f79ff0ef          	jal	12c <__hidden___udivsi3>
 1b8:	00058513          	mv	a0,a1
 1bc:	00028067          	jr	t0
 1c0:	40b005b3          	neg	a1,a1
 1c4:	fe0558e3          	bgez	a0,1b4 <__modsi3+0xc>
 1c8:	40a00533          	neg	a0,a0
 1cc:	f61ff0ef          	jal	12c <__hidden___udivsi3>
 1d0:	40b00533          	neg	a0,a1
 1d4:	00028067          	jr	t0

Disassembly of section .text.startup:

000001d8 <main>:
 1d8:	ff010113          	addi	sp,sp,-16
 1dc:	00112623          	sw	ra,12(sp)
 1e0:	00812423          	sw	s0,8(sp)
 1e4:	00912223          	sw	s1,4(sp)
 1e8:	01212023          	sw	s2,0(sp)
 1ec:	f05ff0ef          	jal	f0 <clock>
 1f0:	00050413          	mv	s0,a0
 1f4:	efdff0ef          	jal	f0 <clock>
 1f8:	00030e37          	lui	t3,0x30
 1fc:	000e0313          	mv	t1,t3
 200:	000e0893          	mv	a7,t3
 204:	000e0813          	mv	a6,t3
 208:	29b925b7          	lui	a1,0x29b92
 20c:	004e0e13          	addi	t3,t3,4 # 30004 <__heap_start+0x2f004>
 210:	00530313          	addi	t1,t1,5
 214:	00688893          	addi	a7,a7,6
 218:	00780813          	addi	a6,a6,7
 21c:	6ff58593          	addi	a1,a1,1791 # 29b926ff <__heap_start+0x29b916ff>
 220:	000304b7          	lui	s1,0x30
 224:	000e4603          	lbu	a2,0(t3)
 228:	00034703          	lbu	a4,0(t1)
 22c:	0008c683          	lbu	a3,0(a7)
 230:	00084783          	lbu	a5,0(a6)
 234:	00871713          	slli	a4,a4,0x8
 238:	01069693          	slli	a3,a3,0x10
 23c:	01879793          	slli	a5,a5,0x18
 240:	00d7e7b3          	or	a5,a5,a3
 244:	00c7e7b3          	or	a5,a5,a2
 248:	00e7e7b3          	or	a5,a5,a4
 24c:	40a787b3          	sub	a5,a5,a0
 250:	fcf5fae3          	bgeu	a1,a5,224 <main+0x4c>
 254:	e9dff0ef          	jal	f0 <clock>
 258:	40850433          	sub	s0,a0,s0
 25c:	00040513          	mv	a0,s0
 260:	db9ff0ef          	jal	18 <outl>
 264:	00a00913          	li	s2,10
 268:	042c25b7          	lui	a1,0x42c2
 26c:	01248023          	sb	s2,0(s1) # 30000 <__heap_start+0x2f000>
 270:	00040513          	mv	a0,s0
 274:	d8058593          	addi	a1,a1,-640 # 42c1d80 <__heap_start+0x42c0d80>
 278:	eadff0ef          	jal	124 <__divsi3>
 27c:	d9dff0ef          	jal	18 <outl>
 280:	01248023          	sb	s2,0(s1)
 284:	00c12083          	lw	ra,12(sp)
 288:	00812403          	lw	s0,8(sp)
 28c:	00412483          	lw	s1,4(sp)
 290:	00012903          	lw	s2,0(sp)
 294:	00000513          	li	a0,0
 298:	01010113          	addi	sp,sp,16
 29c:	00008067          	ret
