
/home/wkp/codes/RISCV-CPU/testcase/fpga/uartboom.elf:     file format elf32-littleriscv


Disassembly of section .text:

00000000 <_start>:
   0:	00020137          	lui	sp,0x20
   4:	014000ef          	jal	18 <main>
   8:	0ff00513          	li	a0,255
   c:	000306b7          	lui	a3,0x30
  10:	00a68223          	sb	a0,4(a3) # 30004 <__heap_start+0x2f004>
  14:	ff9ff06f          	j	c <_start+0xc>

Disassembly of section .text.startup:

00000018 <main>:
  18:	ff010113          	addi	sp,sp,-16 # 1fff0 <__heap_start+0x1eff0>
  1c:	00812623          	sw	s0,12(sp)
  20:	00912423          	sw	s1,8(sp)
  24:	01212223          	sw	s2,4(sp)
  28:	1ff00713          	li	a4,511
  2c:	000307b7          	lui	a5,0x30
  30:	06100913          	li	s2,97
  34:	06200493          	li	s1,98
  38:	06300413          	li	s0,99
  3c:	06400393          	li	t2,100
  40:	06500293          	li	t0,101
  44:	06600f93          	li	t6,102
  48:	06700f13          	li	t5,103
  4c:	06800e93          	li	t4,104
  50:	06900e13          	li	t3,105
  54:	06a00313          	li	t1,106
  58:	06b00893          	li	a7,107
  5c:	06c00813          	li	a6,108
  60:	06d00513          	li	a0,109
  64:	06e00593          	li	a1,110
  68:	06f00613          	li	a2,111
  6c:	07000693          	li	a3,112
  70:	01278023          	sb	s2,0(a5) # 30000 <__heap_start+0x2f000>
  74:	00978023          	sb	s1,0(a5)
  78:	00878023          	sb	s0,0(a5)
  7c:	00778023          	sb	t2,0(a5)
  80:	00578023          	sb	t0,0(a5)
  84:	01f78023          	sb	t6,0(a5)
  88:	01e78023          	sb	t5,0(a5)
  8c:	01d78023          	sb	t4,0(a5)
  90:	01c78023          	sb	t3,0(a5)
  94:	00678023          	sb	t1,0(a5)
  98:	01178023          	sb	a7,0(a5)
  9c:	01078023          	sb	a6,0(a5)
  a0:	00a78023          	sb	a0,0(a5)
  a4:	00b78023          	sb	a1,0(a5)
  a8:	00c78023          	sb	a2,0(a5)
  ac:	00d78023          	sb	a3,0(a5)
  b0:	fff70713          	addi	a4,a4,-1
  b4:	fa071ee3          	bnez	a4,70 <main+0x58>
  b8:	00c12403          	lw	s0,12(sp)
  bc:	00812483          	lw	s1,8(sp)
  c0:	00412903          	lw	s2,4(sp)
  c4:	00000513          	li	a0,0
  c8:	01010113          	addi	sp,sp,16
  cc:	00008067          	ret
