
/home/wkp/codes/RISCV-CPU/testcase/sim/001_array_test2.elf:     file format elf32-littleriscv


Disassembly of section .text:

00000000 <_start>:
   0:	00020137          	lui	sp,0x20
   4:	0c8000ef          	jal	cc <main>
   8:	0ff00513          	li	a0,255
   c:	000306b7          	lui	a3,0x30
  10:	00a68223          	sb	a0,4(a3) # 30004 <__heap_start+0x2f004>
  14:	ff9ff06f          	j	c <_start+0xc>

00000018 <__divsi3>:
  18:	06054063          	bltz	a0,78 <__umodsi3+0x10>
  1c:	0605c663          	bltz	a1,88 <__umodsi3+0x20>

00000020 <__hidden___udivsi3>:
  20:	00058613          	mv	a2,a1
  24:	00050593          	mv	a1,a0
  28:	fff00513          	li	a0,-1
  2c:	02060c63          	beqz	a2,64 <__hidden___udivsi3+0x44>
  30:	00100693          	li	a3,1
  34:	00b67a63          	bgeu	a2,a1,48 <__hidden___udivsi3+0x28>
  38:	00c05863          	blez	a2,48 <__hidden___udivsi3+0x28>
  3c:	00161613          	slli	a2,a2,0x1
  40:	00169693          	slli	a3,a3,0x1
  44:	feb66ae3          	bltu	a2,a1,38 <__hidden___udivsi3+0x18>
  48:	00000513          	li	a0,0
  4c:	00c5e663          	bltu	a1,a2,58 <__hidden___udivsi3+0x38>
  50:	40c585b3          	sub	a1,a1,a2
  54:	00d56533          	or	a0,a0,a3
  58:	0016d693          	srli	a3,a3,0x1
  5c:	00165613          	srli	a2,a2,0x1
  60:	fe0696e3          	bnez	a3,4c <__hidden___udivsi3+0x2c>
  64:	00008067          	ret

00000068 <__umodsi3>:
  68:	00008293          	mv	t0,ra
  6c:	fb5ff0ef          	jal	20 <__hidden___udivsi3>
  70:	00058513          	mv	a0,a1
  74:	00028067          	jr	t0
  78:	40a00533          	neg	a0,a0
  7c:	00b04863          	bgtz	a1,8c <__umodsi3+0x24>
  80:	40b005b3          	neg	a1,a1
  84:	f9dff06f          	j	20 <__hidden___udivsi3>
  88:	40b005b3          	neg	a1,a1
  8c:	00008293          	mv	t0,ra
  90:	f91ff0ef          	jal	20 <__hidden___udivsi3>
  94:	40a00533          	neg	a0,a0
  98:	00028067          	jr	t0

0000009c <__modsi3>:
  9c:	00008293          	mv	t0,ra
  a0:	0005ca63          	bltz	a1,b4 <__modsi3+0x18>
  a4:	00054c63          	bltz	a0,bc <__modsi3+0x20>
  a8:	f79ff0ef          	jal	20 <__hidden___udivsi3>
  ac:	00058513          	mv	a0,a1
  b0:	00028067          	jr	t0
  b4:	40b005b3          	neg	a1,a1
  b8:	fe0558e3          	bgez	a0,a8 <__modsi3+0xc>
  bc:	40a00533          	neg	a0,a0
  c0:	f61ff0ef          	jal	20 <__hidden___udivsi3>
  c4:	40b00533          	neg	a0,a1
  c8:	00028067          	jr	t0

Disassembly of section .text.startup:

000000cc <main>:
  cc:	fb010113          	addi	sp,sp,-80 # 1ffb0 <__heap_start+0x1efb0>
  d0:	05212023          	sw	s2,64(sp)
  d4:	03312e23          	sw	s3,60(sp)
  d8:	03412c23          	sw	s4,56(sp)
  dc:	03512a23          	sw	s5,52(sp)
  e0:	03612823          	sw	s6,48(sp)
  e4:	03712623          	sw	s7,44(sp)
  e8:	03812423          	sw	s8,40(sp)
  ec:	04112623          	sw	ra,76(sp)
  f0:	2c002c03          	lw	s8,704(zero) # 2c0 <__bss_start>
  f4:	04812423          	sw	s0,72(sp)
  f8:	04912223          	sw	s1,68(sp)
  fc:	03912223          	sw	s9,36(sp)
 100:	03a12023          	sw	s10,32(sp)
 104:	01b12e23          	sw	s11,28(sp)
 108:	00030b37          	lui	s6,0x30
 10c:	03400793          	li	a5,52
 110:	00fb0023          	sb	a5,0(s6) # 30000 <__heap_start+0x2f000>
 114:	00a00793          	li	a5,10
 118:	00fb0023          	sb	a5,0(s6)
 11c:	00100613          	li	a2,1
 120:	00400793          	li	a5,4
 124:	00200693          	li	a3,2
 128:	00300713          	li	a4,3
 12c:	00cc2023          	sw	a2,0(s8)
 130:	00dc2223          	sw	a3,4(s8)
 134:	00ec2423          	sw	a4,8(s8)
 138:	00fc2623          	sw	a5,12(s8)
 13c:	000c0993          	mv	s3,s8
 140:	010c0a13          	addi	s4,s8,16
 144:	000c0b93          	mv	s7,s8
 148:	00f10933          	add	s2,sp,a5
 14c:	00900a93          	li	s5,9
 150:	000ba403          	lw	s0,0(s7)
 154:	00000d13          	li	s10,0
 158:	14044863          	bltz	s0,2a8 <main+0x1dc>
 15c:	00000d93          	li	s11,0
 160:	00a00593          	li	a1,10
 164:	00040513          	mv	a0,s0
 168:	f35ff0ef          	jal	9c <__modsi3>
 16c:	000d8493          	mv	s1,s11
 170:	001d8d93          	addi	s11,s11,1
 174:	01b90cb3          	add	s9,s2,s11
 178:	03050513          	addi	a0,a0,48
 17c:	feac8fa3          	sb	a0,-1(s9)
 180:	00a00593          	li	a1,10
 184:	00040513          	mv	a0,s0
 188:	00040c93          	mv	s9,s0
 18c:	e8dff0ef          	jal	18 <__divsi3>
 190:	00050413          	mv	s0,a0
 194:	fd9ac6e3          	blt	s5,s9,160 <main+0x94>
 198:	000d0a63          	beqz	s10,1ac <main+0xe0>
 19c:	002d87b3          	add	a5,s11,sp
 1a0:	02d00713          	li	a4,45
 1a4:	00e78223          	sb	a4,4(a5)
 1a8:	000d8493          	mv	s1,s11
 1ac:	009907b3          	add	a5,s2,s1
 1b0:	0007c683          	lbu	a3,0(a5)
 1b4:	00078713          	mv	a4,a5
 1b8:	fff78793          	addi	a5,a5,-1
 1bc:	00db0023          	sb	a3,0(s6)
 1c0:	fee918e3          	bne	s2,a4,1b0 <main+0xe4>
 1c4:	004b8b93          	addi	s7,s7,4
 1c8:	f97a14e3          	bne	s4,s7,150 <main+0x84>
 1cc:	00a00793          	li	a5,10
 1d0:	00fb0023          	sb	a5,0(s6)
 1d4:	000c2023          	sw	zero,0(s8)
 1d8:	000c2223          	sw	zero,4(s8)
 1dc:	000c2423          	sw	zero,8(s8)
 1e0:	000c2623          	sw	zero,12(s8)
 1e4:	00900a93          	li	s5,9
 1e8:	02d00b93          	li	s7,45
 1ec:	00030b37          	lui	s6,0x30
 1f0:	0009a403          	lw	s0,0(s3)
 1f4:	00000c13          	li	s8,0
 1f8:	0a044e63          	bltz	s0,2b4 <main+0x1e8>
 1fc:	00000c93          	li	s9,0
 200:	00a00593          	li	a1,10
 204:	00040513          	mv	a0,s0
 208:	e95ff0ef          	jal	9c <__modsi3>
 20c:	000c8493          	mv	s1,s9
 210:	001c8c93          	addi	s9,s9,1
 214:	01990d33          	add	s10,s2,s9
 218:	03050513          	addi	a0,a0,48
 21c:	fead0fa3          	sb	a0,-1(s10)
 220:	00a00593          	li	a1,10
 224:	00040513          	mv	a0,s0
 228:	00040d13          	mv	s10,s0
 22c:	dedff0ef          	jal	18 <__divsi3>
 230:	00050413          	mv	s0,a0
 234:	fdaac6e3          	blt	s5,s10,200 <main+0x134>
 238:	000c0863          	beqz	s8,248 <main+0x17c>
 23c:	002c87b3          	add	a5,s9,sp
 240:	01778223          	sb	s7,4(a5)
 244:	000c8493          	mv	s1,s9
 248:	009907b3          	add	a5,s2,s1
 24c:	0007c683          	lbu	a3,0(a5)
 250:	00078713          	mv	a4,a5
 254:	fff78793          	addi	a5,a5,-1
 258:	00db0023          	sb	a3,0(s6) # 30000 <__heap_start+0x2f000>
 25c:	fee918e3          	bne	s2,a4,24c <main+0x180>
 260:	00498993          	addi	s3,s3,4
 264:	f93a16e3          	bne	s4,s3,1f0 <main+0x124>
 268:	04c12083          	lw	ra,76(sp)
 26c:	04812403          	lw	s0,72(sp)
 270:	04412483          	lw	s1,68(sp)
 274:	04012903          	lw	s2,64(sp)
 278:	03c12983          	lw	s3,60(sp)
 27c:	03812a03          	lw	s4,56(sp)
 280:	03412a83          	lw	s5,52(sp)
 284:	03012b03          	lw	s6,48(sp)
 288:	02c12b83          	lw	s7,44(sp)
 28c:	02812c03          	lw	s8,40(sp)
 290:	02412c83          	lw	s9,36(sp)
 294:	02012d03          	lw	s10,32(sp)
 298:	01c12d83          	lw	s11,28(sp)
 29c:	00000513          	li	a0,0
 2a0:	05010113          	addi	sp,sp,80
 2a4:	00008067          	ret
 2a8:	40800433          	neg	s0,s0
 2ac:	00100d13          	li	s10,1
 2b0:	eadff06f          	j	15c <main+0x90>
 2b4:	40800433          	neg	s0,s0
 2b8:	00100c13          	li	s8,1
 2bc:	f41ff06f          	j	1fc <main+0x130>
