
/home/wkp/codes/RISCV-CPU/testcase/sim/004_gcd.elf:     file format elf32-littleriscv


Disassembly of section .text:

00000000 <_start>:
   0:	00020137          	lui	sp,0x20
   4:	1d0000ef          	jal	1d4 <main>
   8:	0ff00513          	li	a0,255
   c:	000306b7          	lui	a3,0x30
  10:	00a68223          	sb	a0,4(a3) # 30004 <__heap_start+0x2f004>
  14:	ff9ff06f          	j	c <_start+0xc>

00000018 <outl>:
  18:	fd010113          	addi	sp,sp,-48 # 1ffd0 <__heap_start+0x1efd0>
  1c:	02812423          	sw	s0,40(sp)
  20:	01612823          	sw	s6,16(sp)
  24:	02112623          	sw	ra,44(sp)
  28:	02912223          	sw	s1,36(sp)
  2c:	03212023          	sw	s2,32(sp)
  30:	01312e23          	sw	s3,28(sp)
  34:	01412c23          	sw	s4,24(sp)
  38:	01512a23          	sw	s5,20(sp)
  3c:	00050413          	mv	s0,a0
  40:	00000b13          	li	s6,0
  44:	00055663          	bgez	a0,50 <outl+0x38>
  48:	40a00433          	neg	s0,a0
  4c:	00100b13          	li	s6,1
  50:	00000913          	li	s2,0
  54:	00410993          	addi	s3,sp,4
  58:	00900a93          	li	s5,9
  5c:	00a00593          	li	a1,10
  60:	00040513          	mv	a0,s0
  64:	140000ef          	jal	1a4 <__modsi3>
  68:	00090493          	mv	s1,s2
  6c:	00190913          	addi	s2,s2,1
  70:	01298a33          	add	s4,s3,s2
  74:	03050513          	addi	a0,a0,48
  78:	feaa0fa3          	sb	a0,-1(s4)
  7c:	00a00593          	li	a1,10
  80:	00040513          	mv	a0,s0
  84:	00040a13          	mv	s4,s0
  88:	098000ef          	jal	120 <__divsi3>
  8c:	00050413          	mv	s0,a0
  90:	fd4ac6e3          	blt	s5,s4,5c <outl+0x44>
  94:	000b0c63          	beqz	s6,ac <outl+0x94>
  98:	01090793          	addi	a5,s2,16
  9c:	002787b3          	add	a5,a5,sp
  a0:	02d00713          	li	a4,45
  a4:	00090493          	mv	s1,s2
  a8:	fee78a23          	sb	a4,-12(a5)
  ac:	009987b3          	add	a5,s3,s1
  b0:	00030637          	lui	a2,0x30
  b4:	0007c683          	lbu	a3,0(a5)
  b8:	00078713          	mv	a4,a5
  bc:	fff78793          	addi	a5,a5,-1
  c0:	00d60023          	sb	a3,0(a2) # 30000 <__heap_start+0x2f000>
  c4:	fee998e3          	bne	s3,a4,b4 <outl+0x9c>
  c8:	02c12083          	lw	ra,44(sp)
  cc:	02812403          	lw	s0,40(sp)
  d0:	02412483          	lw	s1,36(sp)
  d4:	02012903          	lw	s2,32(sp)
  d8:	01c12983          	lw	s3,28(sp)
  dc:	01812a03          	lw	s4,24(sp)
  e0:	01412a83          	lw	s5,20(sp)
  e4:	01012b03          	lw	s6,16(sp)
  e8:	03010113          	addi	sp,sp,48
  ec:	00008067          	ret

000000f0 <gcd>:
  f0:	ff010113          	addi	sp,sp,-16
  f4:	00112623          	sw	ra,12(sp)
  f8:	00812423          	sw	s0,8(sp)
  fc:	00058413          	mv	s0,a1
 100:	0a4000ef          	jal	1a4 <__modsi3>
 104:	00050593          	mv	a1,a0
 108:	00040513          	mv	a0,s0
 10c:	fe0598e3          	bnez	a1,fc <gcd+0xc>
 110:	00c12083          	lw	ra,12(sp)
 114:	00812403          	lw	s0,8(sp)
 118:	01010113          	addi	sp,sp,16
 11c:	00008067          	ret

00000120 <__divsi3>:
 120:	06054063          	bltz	a0,180 <__umodsi3+0x10>
 124:	0605c663          	bltz	a1,190 <__umodsi3+0x20>

00000128 <__hidden___udivsi3>:
 128:	00058613          	mv	a2,a1
 12c:	00050593          	mv	a1,a0
 130:	fff00513          	li	a0,-1
 134:	02060c63          	beqz	a2,16c <__hidden___udivsi3+0x44>
 138:	00100693          	li	a3,1
 13c:	00b67a63          	bgeu	a2,a1,150 <__hidden___udivsi3+0x28>
 140:	00c05863          	blez	a2,150 <__hidden___udivsi3+0x28>
 144:	00161613          	slli	a2,a2,0x1
 148:	00169693          	slli	a3,a3,0x1
 14c:	feb66ae3          	bltu	a2,a1,140 <__hidden___udivsi3+0x18>
 150:	00000513          	li	a0,0
 154:	00c5e663          	bltu	a1,a2,160 <__hidden___udivsi3+0x38>
 158:	40c585b3          	sub	a1,a1,a2
 15c:	00d56533          	or	a0,a0,a3
 160:	0016d693          	srli	a3,a3,0x1
 164:	00165613          	srli	a2,a2,0x1
 168:	fe0696e3          	bnez	a3,154 <__hidden___udivsi3+0x2c>
 16c:	00008067          	ret

00000170 <__umodsi3>:
 170:	00008293          	mv	t0,ra
 174:	fb5ff0ef          	jal	128 <__hidden___udivsi3>
 178:	00058513          	mv	a0,a1
 17c:	00028067          	jr	t0
 180:	40a00533          	neg	a0,a0
 184:	00b04863          	bgtz	a1,194 <__umodsi3+0x24>
 188:	40b005b3          	neg	a1,a1
 18c:	f9dff06f          	j	128 <__hidden___udivsi3>
 190:	40b005b3          	neg	a1,a1
 194:	00008293          	mv	t0,ra
 198:	f91ff0ef          	jal	128 <__hidden___udivsi3>
 19c:	40a00533          	neg	a0,a0
 1a0:	00028067          	jr	t0

000001a4 <__modsi3>:
 1a4:	00008293          	mv	t0,ra
 1a8:	0005ca63          	bltz	a1,1bc <__modsi3+0x18>
 1ac:	00054c63          	bltz	a0,1c4 <__modsi3+0x20>
 1b0:	f79ff0ef          	jal	128 <__hidden___udivsi3>
 1b4:	00058513          	mv	a0,a1
 1b8:	00028067          	jr	t0
 1bc:	40b005b3          	neg	a1,a1
 1c0:	fe0558e3          	bgez	a0,1b0 <__modsi3+0xc>
 1c4:	40a00533          	neg	a0,a0
 1c8:	f61ff0ef          	jal	128 <__hidden___udivsi3>
 1cc:	40b00533          	neg	a0,a1
 1d0:	00028067          	jr	t0

Disassembly of section .text.startup:

000001d4 <main>:
 1d4:	ff010113          	addi	sp,sp,-16
 1d8:	00100513          	li	a0,1
 1dc:	00112623          	sw	ra,12(sp)
 1e0:	00812423          	sw	s0,8(sp)
 1e4:	00912223          	sw	s1,4(sp)
 1e8:	00030437          	lui	s0,0x30
 1ec:	e2dff0ef          	jal	18 <outl>
 1f0:	00a00493          	li	s1,10
 1f4:	40500513          	li	a0,1029
 1f8:	00940023          	sb	s1,0(s0) # 30000 <__heap_start+0x2f000>
 1fc:	e1dff0ef          	jal	18 <outl>
 200:	55800593          	li	a1,1368
 204:	00940023          	sb	s1,0(s0)
 208:	60300513          	li	a0,1539
 20c:	00058413          	mv	s0,a1
 210:	f95ff0ef          	jal	1a4 <__modsi3>
 214:	00050593          	mv	a1,a0
 218:	00040513          	mv	a0,s0
 21c:	fe0598e3          	bnez	a1,20c <main+0x38>
 220:	df9ff0ef          	jal	18 <outl>
 224:	000307b7          	lui	a5,0x30
 228:	00a00713          	li	a4,10
 22c:	00e78023          	sb	a4,0(a5) # 30000 <__heap_start+0x2f000>
 230:	00c12083          	lw	ra,12(sp)
 234:	00812403          	lw	s0,8(sp)
 238:	00412483          	lw	s1,4(sp)
 23c:	00000513          	li	a0,0
 240:	01010113          	addi	sp,sp,16
 244:	00008067          	ret
