
/home/wkp/codes/RISCV-CPU/testcase/sim/007_hanoi.elf:     file format elf32-littleriscv


Disassembly of section .text:

00000000 <_start>:
   0:	00020137          	lui	sp,0x20
   4:	290000ef          	jal	294 <main>
   8:	0ff00513          	li	a0,255
   c:	000306b7          	lui	a3,0x30
  10:	00a68223          	sb	a0,4(a3) # 30004 <__heap_start+0x2f004>
  14:	ff9ff06f          	j	c <_start+0xc>

00000018 <cd>:
  18:	fd010113          	addi	sp,sp,-48 # 1ffd0 <__heap_start+0x1efd0>
  1c:	02912223          	sw	s1,36(sp)
  20:	01512a23          	sw	s5,20(sp)
  24:	01712623          	sw	s7,12(sp)
  28:	02112623          	sw	ra,44(sp)
  2c:	03212023          	sw	s2,32(sp)
  30:	01312e23          	sw	s3,28(sp)
  34:	01412c23          	sw	s4,24(sp)
  38:	01612823          	sw	s6,16(sp)
  3c:	00100b93          	li	s7,1
  40:	00058a93          	mv	s5,a1
  44:	00068493          	mv	s1,a3
  48:	19750263          	beq	a0,s7,1cc <cd+0x1b4>
  4c:	02812423          	sw	s0,40(sp)
  50:	01812423          	sw	s8,8(sp)
  54:	01912223          	sw	s9,4(sp)
  58:	00050b13          	mv	s6,a0
  5c:	00060913          	mv	s2,a2
  60:	3b400a13          	li	s4,948
  64:	3bc00993          	li	s3,956
  68:	00050c13          	mv	s8,a0
  6c:	00030437          	lui	s0,0x30
  70:	00a00c93          	li	s9,10
  74:	fffc0c13          	addi	s8,s8,-1
  78:	000c0513          	mv	a0,s8
  7c:	00090693          	mv	a3,s2
  80:	00048613          	mv	a2,s1
  84:	000a8593          	mv	a1,s5
  88:	f91ff0ef          	jal	18 <cd>
  8c:	00050713          	mv	a4,a0
  90:	000a0813          	mv	a6,s4
  94:	06d00793          	li	a5,109
  98:	00f40023          	sb	a5,0(s0) # 30000 <__heap_start+0x2f000>
  9c:	00184783          	lbu	a5,1(a6)
  a0:	00180813          	addi	a6,a6,1
  a4:	fe079ae3          	bnez	a5,98 <cd+0x80>
  a8:	000ac783          	lbu	a5,0(s5)
  ac:	00078c63          	beqz	a5,c4 <cd+0xac>
  b0:	000a8813          	mv	a6,s5
  b4:	00f40023          	sb	a5,0(s0)
  b8:	00184783          	lbu	a5,1(a6)
  bc:	00180813          	addi	a6,a6,1
  c0:	fe079ae3          	bnez	a5,b4 <cd+0x9c>
  c4:	00098813          	mv	a6,s3
  c8:	02000793          	li	a5,32
  cc:	00f40023          	sb	a5,0(s0)
  d0:	00184783          	lbu	a5,1(a6)
  d4:	00180813          	addi	a6,a6,1
  d8:	fe079ae3          	bnez	a5,cc <cd+0xb4>
  dc:	0004c783          	lbu	a5,0(s1)
  e0:	00078c63          	beqz	a5,f8 <cd+0xe0>
  e4:	00048813          	mv	a6,s1
  e8:	00f40023          	sb	a5,0(s0)
  ec:	00184783          	lbu	a5,1(a6)
  f0:	00180813          	addi	a6,a6,1
  f4:	fe079ae3          	bnez	a5,e8 <cd+0xd0>
  f8:	01940023          	sb	s9,0(s0)
  fc:	017c0a63          	beq	s8,s7,110 <cd+0xf8>
 100:	000a8793          	mv	a5,s5
 104:	00090a93          	mv	s5,s2
 108:	00078913          	mv	s2,a5
 10c:	f69ff06f          	j	74 <cd+0x5c>
 110:	02812403          	lw	s0,40(sp)
 114:	00812c03          	lw	s8,8(sp)
 118:	00412c83          	lw	s9,4(sp)
 11c:	fffb0b13          	addi	s6,s6,-1
 120:	000a0693          	mv	a3,s4
 124:	06d00793          	li	a5,109
 128:	00030637          	lui	a2,0x30
 12c:	00f60023          	sb	a5,0(a2) # 30000 <__heap_start+0x2f000>
 130:	0016c783          	lbu	a5,1(a3)
 134:	00168693          	addi	a3,a3,1
 138:	fe079ae3          	bnez	a5,12c <cd+0x114>
 13c:	00094783          	lbu	a5,0(s2)
 140:	00078c63          	beqz	a5,158 <cd+0x140>
 144:	000306b7          	lui	a3,0x30
 148:	00f68023          	sb	a5,0(a3) # 30000 <__heap_start+0x2f000>
 14c:	00194783          	lbu	a5,1(s2)
 150:	00190913          	addi	s2,s2,1
 154:	fe079ae3          	bnez	a5,148 <cd+0x130>
 158:	00098693          	mv	a3,s3
 15c:	02000793          	li	a5,32
 160:	00030637          	lui	a2,0x30
 164:	00f60023          	sb	a5,0(a2) # 30000 <__heap_start+0x2f000>
 168:	0016c783          	lbu	a5,1(a3)
 16c:	00168693          	addi	a3,a3,1
 170:	fe079ae3          	bnez	a5,164 <cd+0x14c>
 174:	0004c783          	lbu	a5,0(s1)
 178:	00078c63          	beqz	a5,190 <cd+0x178>
 17c:	000306b7          	lui	a3,0x30
 180:	00f68023          	sb	a5,0(a3) # 30000 <__heap_start+0x2f000>
 184:	0014c783          	lbu	a5,1(s1)
 188:	00148493          	addi	s1,s1,1
 18c:	fe079ae3          	bnez	a5,180 <cd+0x168>
 190:	000307b7          	lui	a5,0x30
 194:	00a00693          	li	a3,10
 198:	00d78023          	sb	a3,0(a5) # 30000 <__heap_start+0x2f000>
 19c:	02c12083          	lw	ra,44(sp)
 1a0:	00170713          	addi	a4,a4,1
 1a4:	02412483          	lw	s1,36(sp)
 1a8:	02012903          	lw	s2,32(sp)
 1ac:	01c12983          	lw	s3,28(sp)
 1b0:	01812a03          	lw	s4,24(sp)
 1b4:	01412a83          	lw	s5,20(sp)
 1b8:	00c12b83          	lw	s7,12(sp)
 1bc:	01670533          	add	a0,a4,s6
 1c0:	01012b03          	lw	s6,16(sp)
 1c4:	03010113          	addi	sp,sp,48
 1c8:	00008067          	ret
 1cc:	00058913          	mv	s2,a1
 1d0:	3b400a13          	li	s4,948
 1d4:	3bc00993          	li	s3,956
 1d8:	00000b13          	li	s6,0
 1dc:	f45ff06f          	j	120 <cd+0x108>

000001e0 <__divsi3>:
 1e0:	06054063          	bltz	a0,240 <__umodsi3+0x10>
 1e4:	0605c663          	bltz	a1,250 <__umodsi3+0x20>

000001e8 <__hidden___udivsi3>:
 1e8:	00058613          	mv	a2,a1
 1ec:	00050593          	mv	a1,a0
 1f0:	fff00513          	li	a0,-1
 1f4:	02060c63          	beqz	a2,22c <__hidden___udivsi3+0x44>
 1f8:	00100693          	li	a3,1
 1fc:	00b67a63          	bgeu	a2,a1,210 <__hidden___udivsi3+0x28>
 200:	00c05863          	blez	a2,210 <__hidden___udivsi3+0x28>
 204:	00161613          	slli	a2,a2,0x1
 208:	00169693          	slli	a3,a3,0x1
 20c:	feb66ae3          	bltu	a2,a1,200 <__hidden___udivsi3+0x18>
 210:	00000513          	li	a0,0
 214:	00c5e663          	bltu	a1,a2,220 <__hidden___udivsi3+0x38>
 218:	40c585b3          	sub	a1,a1,a2
 21c:	00d56533          	or	a0,a0,a3
 220:	0016d693          	srli	a3,a3,0x1
 224:	00165613          	srli	a2,a2,0x1
 228:	fe0696e3          	bnez	a3,214 <__hidden___udivsi3+0x2c>
 22c:	00008067          	ret

00000230 <__umodsi3>:
 230:	00008293          	mv	t0,ra
 234:	fb5ff0ef          	jal	1e8 <__hidden___udivsi3>
 238:	00058513          	mv	a0,a1
 23c:	00028067          	jr	t0
 240:	40a00533          	neg	a0,a0
 244:	00b04863          	bgtz	a1,254 <__umodsi3+0x24>
 248:	40b005b3          	neg	a1,a1
 24c:	f9dff06f          	j	1e8 <__hidden___udivsi3>
 250:	40b005b3          	neg	a1,a1
 254:	00008293          	mv	t0,ra
 258:	f91ff0ef          	jal	1e8 <__hidden___udivsi3>
 25c:	40a00533          	neg	a0,a0
 260:	00028067          	jr	t0

00000264 <__modsi3>:
 264:	00008293          	mv	t0,ra
 268:	0005ca63          	bltz	a1,27c <__modsi3+0x18>
 26c:	00054c63          	bltz	a0,284 <__modsi3+0x20>
 270:	f79ff0ef          	jal	1e8 <__hidden___udivsi3>
 274:	00058513          	mv	a0,a1
 278:	00028067          	jr	t0
 27c:	40b005b3          	neg	a1,a1
 280:	fe0558e3          	bgez	a0,270 <__modsi3+0xc>
 284:	40a00533          	neg	a0,a0
 288:	f61ff0ef          	jal	1e8 <__hidden___udivsi3>
 28c:	40b00533          	neg	a0,a1
 290:	00028067          	jr	t0

Disassembly of section .text.startup:

00000294 <main>:
 294:	fb010113          	addi	sp,sp,-80
 298:	04100893          	li	a7,65
 29c:	04200813          	li	a6,66
 2a0:	04300793          	li	a5,67
 2a4:	00000713          	li	a4,0
 2a8:	01c10693          	addi	a3,sp,28
 2ac:	01410613          	addi	a2,sp,20
 2b0:	00c10593          	addi	a1,sp,12
 2b4:	00a00513          	li	a0,10
 2b8:	04812423          	sw	s0,72(sp)
 2bc:	03612823          	sw	s6,48(sp)
 2c0:	04112623          	sw	ra,76(sp)
 2c4:	04912223          	sw	s1,68(sp)
 2c8:	05212023          	sw	s2,64(sp)
 2cc:	03312e23          	sw	s3,60(sp)
 2d0:	03412c23          	sw	s4,56(sp)
 2d4:	03512a23          	sw	s5,52(sp)
 2d8:	00010823          	sb	zero,16(sp)
 2dc:	00010c23          	sb	zero,24(sp)
 2e0:	02010023          	sb	zero,32(sp)
 2e4:	01112623          	sw	a7,12(sp)
 2e8:	01012a23          	sw	a6,20(sp)
 2ec:	00f12e23          	sw	a5,28(sp)
 2f0:	d29ff0ef          	jal	18 <cd>
 2f4:	00050413          	mv	s0,a0
 2f8:	00000b13          	li	s6,0
 2fc:	00055663          	bgez	a0,308 <main+0x74>
 300:	40a00433          	neg	s0,a0
 304:	00100b13          	li	s6,1
 308:	00000913          	li	s2,0
 30c:	02410993          	addi	s3,sp,36
 310:	00900a93          	li	s5,9
 314:	00a00593          	li	a1,10
 318:	00040513          	mv	a0,s0
 31c:	f49ff0ef          	jal	264 <__modsi3>
 320:	00090493          	mv	s1,s2
 324:	00190913          	addi	s2,s2,1
 328:	01298a33          	add	s4,s3,s2
 32c:	03050513          	addi	a0,a0,48
 330:	feaa0fa3          	sb	a0,-1(s4)
 334:	00a00593          	li	a1,10
 338:	00040513          	mv	a0,s0
 33c:	00040a13          	mv	s4,s0
 340:	ea1ff0ef          	jal	1e0 <__divsi3>
 344:	00050413          	mv	s0,a0
 348:	fd4ac6e3          	blt	s5,s4,314 <main+0x80>
 34c:	000b0c63          	beqz	s6,364 <main+0xd0>
 350:	03090793          	addi	a5,s2,48
 354:	002787b3          	add	a5,a5,sp
 358:	02d00713          	li	a4,45
 35c:	00090493          	mv	s1,s2
 360:	fee78a23          	sb	a4,-12(a5)
 364:	009987b3          	add	a5,s3,s1
 368:	00030637          	lui	a2,0x30
 36c:	0007c683          	lbu	a3,0(a5)
 370:	00078713          	mv	a4,a5
 374:	fff78793          	addi	a5,a5,-1
 378:	00d60023          	sb	a3,0(a2) # 30000 <__heap_start+0x2f000>
 37c:	fee998e3          	bne	s3,a4,36c <main+0xd8>
 380:	00a00793          	li	a5,10
 384:	00f60023          	sb	a5,0(a2)
 388:	04c12083          	lw	ra,76(sp)
 38c:	04812403          	lw	s0,72(sp)
 390:	04412483          	lw	s1,68(sp)
 394:	04012903          	lw	s2,64(sp)
 398:	03c12983          	lw	s3,60(sp)
 39c:	03812a03          	lw	s4,56(sp)
 3a0:	03412a83          	lw	s5,52(sp)
 3a4:	03012b03          	lw	s6,48(sp)
 3a8:	00000513          	li	a0,0
 3ac:	05010113          	addi	sp,sp,80
 3b0:	00008067          	ret
